; Function Attrs: nounwind uwtable
define dso_local range(i32 -1, 1) i32 @hash_g_init() local_unnamed_addr #0 {
  %1 = alloca ptr, align 8
  %2 = alloca ptr, align 8
  %3 = alloca ptr, align 8
  %4 = alloca ptr, align 8
  call void @llvm.lifetime.start.p0(i64 8, ptr nonnull %1) #8
  store ptr null, ptr %1, align 8
  call void @llvm.lifetime.start.p0(i64 8, ptr nonnull %2) #8
  store ptr null, ptr %2, align 8
  call void @llvm.lifetime.start.p0(i64 8, ptr nonnull %3) #8
  store ptr null, ptr %3, align 8
  %5 = tail call i32 @pthread_mutex_lock(ptr noundef nonnull @g_context_lock) #8
  %.not = icmp eq i32 %5, 0
  br i1 %.not, label %8, label %6

6:                                                ; preds = %0
  %7 = tail call ptr @__errno_location() #9
  store i32 %5, ptr %7, align 4
  tail call void (ptr, ...) @fatal_abort(ptr noundef nonnull @.str.1, ptr noundef nonnull @__func__.hash_g_init) #10
  unreachable

8:                                                ; preds = %0
  %9 = load ptr, ptr @g_context, align 8
  %.not17 = icmp eq ptr %9, null
  br i1 %.not17, label %10, label %55

10:                                               ; preds = %8
  store i32 0, ptr @g_context_num, align 4
  tail call void @llvm.memset.p0.i64(ptr noundef nonnull align 1 dereferenceable(5) @hash_id_to_inx, i8 -1, i64 5, i1 false)
  %11 = load ptr, ptr getelementptr inbounds nuw (i8, ptr @slurm_conf, i64 432), align 8
  %12 = tail call ptr @xstrdup(ptr noundef %11) #8
  store ptr %12, ptr %1, align 8
  %13 = tail call ptr @xstrstr(ptr noundef %12, ptr noundef nonnull @.str.2) #8
  %.not18 = icmp eq ptr %13, null
  br i1 %.not18, label %14, label %15

14:                                               ; preds = %10
  call void @_xstrcat(ptr noundef nonnull %1, ptr noundef nonnull @.str.3) #8
  %.pre = load ptr, ptr %1, align 8
  br label %15

15:                                               ; preds = %14, %10
  %16 = phi ptr [ %.pre, %14 ], [ %12, %10 ]
  store ptr %16, ptr %2, align 8
  %17 = call ptr @strtok_r(ptr noundef %16, ptr noundef nonnull @.str.4, ptr noundef nonnull %3) #8
  %.not1927 = icmp eq ptr %17, null
  br i1 %.not1927, label %._crit_edge, label %.lr.ph

.lr.ph:                                           ; preds = %15, %43
  %18 = phi ptr [ %54, %43 ], [ %17, %15 ]
  call void @llvm.lifetime.start.p0(i64 8, ptr nonnull %4) #8
  store ptr null, ptr %4, align 8
  %19 = load i32, ptr @g_context_num, align 4
  %20 = add nsw i32 %19, 1
  %21 = sext i32 %20 to i64
  %22 = call ptr @slurm_xrecalloc(ptr noundef nonnull @ops, i64 noundef %21, i64 noundef 24, i1 noundef zeroext true, i1 noundef zeroext false, ptr noundef nonnull @.str.5, i32 noundef 102, ptr noundef nonnull @__func__.hash_g_init) #8
  %23 = load i32, ptr @g_context_num, align 4
  %24 = add nsw i32 %23, 1
  %25 = sext i32 %24 to i64
  %26 = call ptr @slurm_xrecalloc(ptr noundef nonnull @g_context, i64 noundef %25, i64 noundef 8, i1 noundef zeroext true, i1 noundef zeroext false, ptr noundef nonnull @.str.5, i32 noundef 104, ptr noundef nonnull @__func__.hash_g_init) #8
  %27 = call i32 @xstrncmp(ptr noundef nonnull %18, ptr noundef nonnull @.str.6, i64 noundef 5) #8
  %.not20 = icmp eq i32 %27, 0
  %spec.select.idx = select i1 %.not20, i64 5, i64 0
  %spec.select = getelementptr inbounds nuw i8, ptr %18, i64 %spec.select.idx
  %28 = call ptr (ptr, ...) @xstrdup_printf(ptr noundef nonnull @.str.7, ptr noundef nonnull %spec.select) #8
  store ptr %28, ptr %4, align 8
  %29 = load ptr, ptr @ops, align 8
  %30 = load i32, ptr @g_context_num, align 4
  %31 = sext i32 %30 to i64
  %32 = getelementptr inbounds %struct.slurm_ops, ptr %29, i64 %31
  %33 = call ptr @plugin_context_create(ptr noundef nonnull @.str, ptr noundef %28, ptr noundef %32, ptr noundef nonnull @syms, i64 noundef 24) #8
  %34 = load ptr, ptr @g_context, align 8
  %35 = load i32, ptr @g_context_num, align 4
  %36 = sext i32 %35 to i64
  %37 = getelementptr inbounds ptr, ptr %34, i64 %36
  store ptr %33, ptr %37, align 8
  %38 = load ptr, ptr @g_context, align 8
  %39 = getelementptr inbounds ptr, ptr %38, i64 %36
  %40 = load ptr, ptr %39, align 8
  %.not21 = icmp eq ptr %40, null
  br i1 %.not21, label %.thread, label %43

.thread:                                          ; preds = %.lr.ph
  %41 = load ptr, ptr %4, align 8
  %42 = call i32 (ptr, ...) @error(ptr noundef nonnull @.str.8, ptr noundef nonnull @.str, ptr noundef %41) #8
  call void @slurm_xfree(ptr noundef nonnull %4) #8
  call void @llvm.lifetime.end.p0(i64 8, ptr nonnull %4) #8
  br label %55

43:                                               ; preds = %.lr.ph
  call void @slurm_xfree(ptr noundef nonnull %4) #8
  %44 = load i32, ptr @g_context_num, align 4
  %45 = trunc i32 %44 to i8
  %46 = load ptr, ptr @ops, align 8
  %47 = sext i32 %44 to i64
  %48 = getelementptr inbounds %struct.slurm_ops, ptr %46, i64 %47
  %49 = load ptr, ptr %48, align 8
  %50 = load i32, ptr %49, align 4
  %51 = zext i32 %50 to i64
  %52 = getelementptr inbounds nuw [5 x i8], ptr @hash_id_to_inx, i64 0, i64 %51
  store i8 %45, ptr %52, align 1
  %53 = add nsw i32 %44, 1
  store i32 %53, ptr @g_context_num, align 4
  store ptr null, ptr %1, align 8
  call void @llvm.lifetime.end.p0(i64 8, ptr nonnull %4) #8
  %54 = call ptr @strtok_r(ptr noundef null, ptr noundef nonnull @.str.4, ptr noundef nonnull %3) #8
  %.not19 = icmp eq ptr %54, null
  br i1 %.not19, label %._crit_edge, label %.lr.ph

._crit_edge:                                      ; preds = %43, %15
  store i8 0, ptr @hash_id_to_inx, align 1
  br label %55

55:                                               ; preds = %.thread, %._crit_edge, %8
  %.2 = phi i32 [ 0, %8 ], [ 0, %._crit_edge ], [ -1, %.thread ]
  %56 = call i32 @pthread_mutex_unlock(ptr noundef nonnull @g_context_lock) #8
  %.not22 = icmp eq i32 %56, 0
  br i1 %.not22, label %59, label %57

57:                                               ; preds = %55
  %58 = tail call ptr @__errno_location() #9
  store i32 %56, ptr %58, align 4
  call void (ptr, ...) @fatal_abort(ptr noundef nonnull @.str.9, ptr noundef nonnull @__func__.hash_g_init) #10
  unreachable

59:                                               ; preds = %55
  call void @slurm_xfree(ptr noundef nonnull %2) #8
  call void @llvm.lifetime.end.p0(i64 8, ptr nonnull %3) #8
  call void @llvm.lifetime.end.p0(i64 8, ptr nonnull %2) #8
  call void @llvm.lifetime.end.p0(i64 8, ptr nonnull %1) #8
  ret i32 %.2
}